target datalayout = "e-m:e-p270:32:32-p271:32:32-p272:64:64-i64:64-i128:128-f80:128-n8:16:32:64-S128"
target triple = "x86_64-pc-linux-gnu"

%struct.pg_enc2name = type { ptr, i32 }

@DatabaseEncoding = internal global ptr @pg_enc2name_tbl, align 8

; Function Attrs: nounwind uwtable
define dso_local i32 @GetDatabaseEncoding() #1 {
  %1 = load ptr, ptr @DatabaseEncoding, align 8
  %2 = getelementptr inbounds nuw %struct.pg_enc2name, ptr %1, i32 0, i32 1
  %3 = load i32, ptr %2, align 8
  ret i32 %3
}

; Function Attrs: nounwind uwtable
define dso_local ptr @pg_database_encoding_character_incrementer() #1 {
  %1 = alloca ptr, align 8
  %2 = call i32 @GetDatabaseEncoding()
  switch i32 %2, label %5 [
    i32 6, label %3
    i32 1, label %4
  ]

3:                                                ; preds = %0
  store ptr @pg_utf8_increment, ptr %1, align 8
  br label %6

4:                                                ; preds = %0
  store ptr @pg_eucjp_increment, ptr %1, align 8
  br label %6

5:                                                ; preds = %0
  store ptr @pg_generic_charinc, ptr %1, align 8
  br label %6

6:                                                ; preds = %5, %4, %3
  %7 = load ptr, ptr %1, align 8
  ret ptr %7
}