; Function Attrs: mustprogress nofree norecurse nosync nounwind willreturn memory(read, inaccessiblemem: none) uwtable
define dso_local nonnull ptr @pg_database_encoding_character_incrementer() local_unnamed_addr #2 {
  %1 = load ptr, ptr @DatabaseEncoding, align 8
  %2 = getelementptr inbounds nuw i8, ptr %1, i64 8
  %3 = load i32, ptr %2, align 8
  %switch.selectcmp = icmp eq i32 %3, 1
  %switch.select = select i1 %switch.selectcmp, ptr @pg_eucjp_increment, ptr @pg_generic_charinc
  %switch.selectcmp1 = icmp eq i32 %3, 6
  %switch.select2 = select i1 %switch.selectcmp1, ptr @pg_utf8_increment, ptr %switch.select
  ret ptr %switch.select2
}